; ModuleID = '31/1868.c'
source_filename = "31/1868.c"
target datalayout = "e-m:e-p270:32:32-p271:32:32-p272:64:64-i64:64-f80:128-n8:16:32:64-S128"
target triple = "x86_64-pc-linux-gnu"

%struct.student = type { [100 x i8], %struct.student* }

@.str = private unnamed_addr constant [4 x i8] c"end\00", align 1
@.str.1 = private unnamed_addr constant [4 x i8] c"%s\0A\00", align 1

; Function Attrs: noinline nounwind uwtable
define dso_local %struct.student* @creat() #0 {
  %1 = alloca %struct.student*, align 8
  %2 = alloca %struct.student*, align 8
  %3 = alloca %struct.student*, align 8
  %4 = alloca %struct.student*, align 8
  %5 = call noalias i8* @malloc(i64 100) #4
  %6 = bitcast i8* %5 to %struct.student*
  store %struct.student* %6, %struct.student** %3, align 8
  %7 = load %struct.student*, %struct.student** %3, align 8
  %8 = getelementptr inbounds %struct.student, %struct.student* %7, i32 0, i32 0
  %9 = getelementptr inbounds [100 x i8], [100 x i8]* %8, i64 0, i64 0
  %10 = call i32 (i8*, ...) bitcast (i32 (...)* @gets to i32 (i8*, ...)*)(i8* %9)
  %11 = load %struct.student*, %struct.student** %3, align 8
  %12 = getelementptr inbounds %struct.student, %struct.student* %11, i32 0, i32 0
  %13 = getelementptr inbounds [100 x i8], [100 x i8]* %12, i64 0, i64 0
  %14 = call i32 @strcmp(i8* %13, i8* getelementptr inbounds ([4 x i8], [4 x i8]* @.str, i64 0, i64 0)) #5
  %15 = icmp eq i32 %14, 0
  br i1 %15, label %16, label %20

16:                                               ; preds = %0
  %17 = load %struct.student*, %struct.student** %3, align 8
  %18 = bitcast %struct.student* %17 to i8*
  call void @free(i8* %18) #4
  store %struct.student* null, %struct.student** %2, align 8
  %19 = load %struct.student*, %struct.student** %2, align 8
  store %struct.student* %19, %struct.student** %1, align 8
  br label %52

20:                                               ; preds = %0
  %21 = load %struct.student*, %struct.student** %3, align 8
  %22 = getelementptr inbounds %struct.student, %struct.student* %21, i32 0, i32 1
  store %struct.student* null, %struct.student** %22, align 8
  %23 = load %struct.student*, %struct.student** %3, align 8
  store %struct.student* %23, %struct.student** %2, align 8
  %24 = load %struct.student*, %struct.student** %3, align 8
  store %struct.student* %24, %struct.student** %4, align 8
  br label %25

25:                                               ; preds = %49, %20
  %26 = call noalias i8* @malloc(i64 100) #4
  %27 = bitcast i8* %26 to %struct.student*
  store %struct.student* %27, %struct.student** %3, align 8
  %28 = load %struct.student*, %struct.student** %3, align 8
  %29 = getelementptr inbounds %struct.student, %struct.student* %28, i32 0, i32 0
  %30 = getelementptr inbounds [100 x i8], [100 x i8]* %29, i64 0, i64 0
  %31 = call i32 (i8*, ...) bitcast (i32 (...)* @gets to i32 (i8*, ...)*)(i8* %30)
  %32 = load %struct.student*, %struct.student** %3, align 8
  %33 = getelementptr inbounds %struct.student, %struct.student* %32, i32 0, i32 0
  %34 = getelementptr inbounds [100 x i8], [100 x i8]* %33, i64 0, i64 0
  %35 = call i32 @strcmp(i8* %34, i8* getelementptr inbounds ([4 x i8], [4 x i8]* @.str, i64 0, i64 0)) #5
  %36 = icmp eq i32 %35, 0
  br i1 %36, label %37, label %40

37:                                               ; preds = %25
  %38 = load %struct.student*, %struct.student** %3, align 8
  %39 = bitcast %struct.student* %38 to i8*
  call void @free(i8* %39) #4
  br label %50

40:                                               ; preds = %25
  %41 = load %struct.student*, %struct.student** %3, align 8
  %42 = getelementptr inbounds %struct.student, %struct.student* %41, i32 0, i32 1
  store %struct.student* null, %struct.student** %42, align 8
  %43 = load %struct.student*, %struct.student** %4, align 8
  %44 = load %struct.student*, %struct.student** %3, align 8
  %45 = getelementptr inbounds %struct.student, %struct.student* %44, i32 0, i32 1
  store %struct.student* %43, %struct.student** %45, align 8
  %46 = load %struct.student*, %struct.student** %3, align 8
  store %struct.student* %46, %struct.student** %4, align 8
  %47 = load %struct.student*, %struct.student** %3, align 8
  store %struct.student* %47, %struct.student** %2, align 8
  br label %48

48:                                               ; preds = %40
  br label %49

49:                                               ; preds = %48
  br i1 true, label %25, label %50

50:                                               ; preds = %49, %37
  %51 = load %struct.student*, %struct.student** %2, align 8
  store %struct.student* %51, %struct.student** %1, align 8
  br label %52

52:                                               ; preds = %50, %16
  %53 = load %struct.student*, %struct.student** %1, align 8
  ret %struct.student* %53
}

; Function Attrs: nounwind
declare dso_local noalias i8* @malloc(i64) #1

declare dso_local i32 @gets(...) #2

; Function Attrs: nounwind readonly
declare dso_local i32 @strcmp(i8*, i8*) #3

; Function Attrs: nounwind
declare dso_local void @free(i8*) #1

; Function Attrs: noinline nounwind uwtable
define dso_local i32 @main() #0 {
  %1 = alloca i32, align 4
  %2 = alloca %struct.student*, align 8
  %3 = alloca %struct.student*, align 8
  store i32 0, i32* %1, align 4
  %4 = call %struct.student* @creat()
  store %struct.student* %4, %struct.student** %3, align 8
  %5 = load %struct.student*, %struct.student** %3, align 8
  store %struct.student* %5, %struct.student** %2, align 8
  br label %6

6:                                                ; preds = %14, %0
  %7 = load %struct.student*, %struct.student** %2, align 8
  %8 = getelementptr inbounds %struct.student, %struct.student* %7, i32 0, i32 0
  %9 = getelementptr inbounds [100 x i8], [100 x i8]* %8, i64 0, i64 0
  %10 = call i32 (i8*, ...) @printf(i8* getelementptr inbounds ([4 x i8], [4 x i8]* @.str.1, i64 0, i64 0), i8* %9)
  %11 = load %struct.student*, %struct.student** %2, align 8
  %12 = getelementptr inbounds %struct.student, %struct.student* %11, i32 0, i32 1
  %13 = load %struct.student*, %struct.student** %12, align 8
  store %struct.student* %13, %struct.student** %2, align 8
  br label %14

14:                                               ; preds = %6
  %15 = load %struct.student*, %struct.student** %2, align 8
  %16 = icmp ne %struct.student* %15, null
  br i1 %16, label %6, label %17

17:                                               ; preds = %14
  ret i32 0
}

declare dso_local i32 @printf(i8*, ...) #2


!llvm.module.flags = !{!0}
!llvm.ident = !{!1}

!0 = !{i32 1, !"wchar_size", i32 4}
!1 = !{!"clang version 10.0.0-4ubuntu1 "}
